target datalayout = "e-m:e-p270:32:32-p271:32:32-p272:64:64-i64:64-i128:128-f80:128-n8:16:32:64-S128"
target triple = "x86_64-pc-linux-gnu"

%struct.AVCIExy = type { %struct.AVRational, %struct.AVRational }
%struct.AVRational = type { i32, i32 }

; Function Attrs: inlinehint nounwind uwtable
define internal i32 @av_cmp_q(i64 %0, i64 %1) #4 {
  %3 = alloca i32, align 4
  %4 = alloca %struct.AVRational, align 4
  %5 = alloca %struct.AVRational, align 4
  %6 = alloca i64, align 8
  %7 = alloca i32, align 4
  store i64 %0, ptr %4, align 4
  store i64 %1, ptr %5, align 4
  call void @llvm.lifetime.start.p0(i64 8, ptr %6) #7
  %8 = getelementptr inbounds nuw %struct.AVRational, ptr %4, i32 0, i32 0
  %9 = load i32, ptr %8, align 4, !tbaa !25
  %10 = sext i32 %9 to i64
  %11 = getelementptr inbounds nuw %struct.AVRational, ptr %5, i32 0, i32 1
  %12 = load i32, ptr %11, align 4, !tbaa !27
  %13 = sext i32 %12 to i64
  %14 = mul nsw i64 %10, %13
  %15 = getelementptr inbounds nuw %struct.AVRational, ptr %5, i32 0, i32 0
  %16 = load i32, ptr %15, align 4, !tbaa !25
  %17 = sext i32 %16 to i64
  %18 = getelementptr inbounds nuw %struct.AVRational, ptr %4, i32 0, i32 1
  %19 = load i32, ptr %18, align 4, !tbaa !27
  %20 = sext i32 %19 to i64
  %21 = mul nsw i64 %17, %20
  %22 = sub nsw i64 %14, %21
  store i64 %22, ptr %6, align 8, !tbaa !40
  %23 = load i64, ptr %6, align 8, !tbaa !40
  %24 = icmp ne i64 %23, 0
  br i1 %24, label %25, label %38

25:                                               ; preds = %2
  %26 = load i64, ptr %6, align 8, !tbaa !40
  %27 = getelementptr inbounds nuw %struct.AVRational, ptr %4, i32 0, i32 1
  %28 = load i32, ptr %27, align 4, !tbaa !27
  %29 = sext i32 %28 to i64
  %30 = xor i64 %26, %29
  %31 = getelementptr inbounds nuw %struct.AVRational, ptr %5, i32 0, i32 1
  %32 = load i32, ptr %31, align 4, !tbaa !27
  %33 = sext i32 %32 to i64
  %34 = xor i64 %30, %33
  %35 = ashr i64 %34, 63
  %36 = trunc i64 %35 to i32
  %37 = or i32 %36, 1
  store i32 %37, ptr %3, align 4
  store i32 1, ptr %7, align 4
  br label %64

38:                                               ; preds = %2
  %39 = getelementptr inbounds nuw %struct.AVRational, ptr %5, i32 0, i32 1
  %40 = load i32, ptr %39, align 4, !tbaa !27
  %41 = icmp ne i32 %40, 0
  br i1 %41, label %42, label %47

42:                                               ; preds = %38
  %43 = getelementptr inbounds nuw %struct.AVRational, ptr %4, i32 0, i32 1
  %44 = load i32, ptr %43, align 4, !tbaa !27
  %45 = icmp ne i32 %44, 0
  br i1 %45, label %46, label %47

46:                                               ; preds = %42
  store i32 0, ptr %3, align 4
  store i32 1, ptr %7, align 4
  br label %64

47:                                               ; preds = %42, %38
  %48 = getelementptr inbounds nuw %struct.AVRational, ptr %4, i32 0, i32 0
  %49 = load i32, ptr %48, align 4, !tbaa !25
  %50 = icmp ne i32 %49, 0
  br i1 %50, label %51, label %63

51:                                               ; preds = %47
  %52 = getelementptr inbounds nuw %struct.AVRational, ptr %5, i32 0, i32 0
  %53 = load i32, ptr %52, align 4, !tbaa !25
  %54 = icmp ne i32 %53, 0
  br i1 %54, label %55, label %63

55:                                               ; preds = %51
  %56 = getelementptr inbounds nuw %struct.AVRational, ptr %4, i32 0, i32 0
  %57 = load i32, ptr %56, align 4, !tbaa !25
  %58 = ashr i32 %57, 31
  %59 = getelementptr inbounds nuw %struct.AVRational, ptr %5, i32 0, i32 0
  %60 = load i32, ptr %59, align 4, !tbaa !25
  %61 = ashr i32 %60, 31
  %62 = sub nsw i32 %58, %61
  store i32 %62, ptr %3, align 4
  store i32 1, ptr %7, align 4
  br label %64

63:                                               ; preds = %51, %47
  store i32 -2147483648, ptr %3, align 4
  store i32 1, ptr %7, align 4
  br label %64

64:                                               ; preds = %63, %55, %46, %25
  call void @llvm.lifetime.end.p0(i64 8, ptr %6) #7
  %65 = load i32, ptr %3, align 4
  ret i32 %65
}

; Function Attrs: nounwind uwtable
define internal i32 @test_point_line(i64 %0, i64 %1, i64 %2, i64 %3, i64 %4, i64 %5) #0 {
  %7 = alloca %struct.AVCIExy, align 4
  %8 = alloca %struct.AVCIExy, align 4
  %9 = alloca %struct.AVCIExy, align 4
  %10 = alloca %struct.AVRational, align 4
  %11 = alloca %struct.AVRational, align 4
  %12 = alloca %struct.AVRational, align 4
  %13 = alloca %struct.AVRational, align 4
  %14 = alloca %struct.AVRational, align 4
  %15 = alloca %struct.AVRational, align 4
  %16 = getelementptr inbounds nuw { i64, i64 }, ptr %7, i32 0, i32 0
  store i64 %0, ptr %16, align 4
  %17 = getelementptr inbounds nuw { i64, i64 }, ptr %7, i32 0, i32 1
  store i64 %1, ptr %17, align 4
  %18 = getelementptr inbounds nuw { i64, i64 }, ptr %8, i32 0, i32 0
  store i64 %2, ptr %18, align 4
  %19 = getelementptr inbounds nuw { i64, i64 }, ptr %8, i32 0, i32 1
  store i64 %3, ptr %19, align 4
  %20 = getelementptr inbounds nuw { i64, i64 }, ptr %9, i32 0, i32 0
  store i64 %4, ptr %20, align 4
  %21 = getelementptr inbounds nuw { i64, i64 }, ptr %9, i32 0, i32 1
  store i64 %5, ptr %21, align 4
  %22 = getelementptr inbounds nuw %struct.AVCIExy, ptr %7, i32 0, i32 0
  %23 = getelementptr inbounds nuw %struct.AVCIExy, ptr %9, i32 0, i32 0
  %24 = load i64, ptr %22, align 4
  %25 = load i64, ptr %23, align 4
  %26 = call i64 @av_sub_q(i64 %24, i64 %25) #8
  store i64 %26, ptr %11, align 4
  %27 = getelementptr inbounds nuw %struct.AVCIExy, ptr %8, i32 0, i32 1
  %28 = getelementptr inbounds nuw %struct.AVCIExy, ptr %9, i32 0, i32 1
  %29 = load i64, ptr %27, align 4
  %30 = load i64, ptr %28, align 4
  %31 = call i64 @av_sub_q(i64 %29, i64 %30) #8
  store i64 %31, ptr %12, align 4
  %32 = load i64, ptr %11, align 4
  %33 = load i64, ptr %12, align 4
  %34 = call i64 @av_mul_q(i64 %32, i64 %33) #8
  store i64 %34, ptr %10, align 4
  %35 = getelementptr inbounds nuw %struct.AVCIExy, ptr %8, i32 0, i32 0
  %36 = getelementptr inbounds nuw %struct.AVCIExy, ptr %9, i32 0, i32 0
  %37 = load i64, ptr %35, align 4
  %38 = load i64, ptr %36, align 4
  %39 = call i64 @av_sub_q(i64 %37, i64 %38) #8
  store i64 %39, ptr %14, align 4
  %40 = getelementptr inbounds nuw %struct.AVCIExy, ptr %7, i32 0, i32 1
  %41 = getelementptr inbounds nuw %struct.AVCIExy, ptr %9, i32 0, i32 1
  %42 = load i64, ptr %40, align 4
  %43 = load i64, ptr %41, align 4
  %44 = call i64 @av_sub_q(i64 %42, i64 %43) #8
  store i64 %44, ptr %15, align 4
  %45 = load i64, ptr %14, align 4
  %46 = load i64, ptr %15, align 4
  %47 = call i64 @av_mul_q(i64 %45, i64 %46) #8
  store i64 %47, ptr %13, align 4
  %48 = load i64, ptr %10, align 4
  %49 = load i64, ptr %13, align 4
  %50 = call i32 @av_cmp_q(i64 %48, i64 %49)
  ret i32 %50
}