; Function Attrs: mustprogress nofree nosync nounwind willreturn memory(none) uwtable
define internal fastcc i32 @test_point_line(i64 %0, i64 %1, i64 %2, i64 %3, i64 %4, i64 %5) unnamed_addr #9 {
  %7 = tail call i64 @av_sub_q(i64 %0, i64 %4) #11
  %8 = tail call i64 @av_sub_q(i64 %3, i64 %5) #11
  %9 = tail call i64 @av_mul_q(i64 %7, i64 %8) #11
  %10 = tail call i64 @av_sub_q(i64 %2, i64 %4) #11
  %11 = tail call i64 @av_sub_q(i64 %1, i64 %5) #11
  %12 = tail call i64 @av_mul_q(i64 %10, i64 %11) #11
  %.sroa.011.0.extract.trunc.i = trunc i64 %9 to i32
  %.sroa.0.0.extract.trunc.i = trunc i64 %12 to i32
  %sext.i = shl i64 %9, 32
  %13 = ashr exact i64 %sext.i, 32
  %14 = ashr i64 %12, 32
  %15 = mul nsw i64 %14, %13
  %sext20.i = shl i64 %12, 32
  %16 = ashr exact i64 %sext20.i, 32
  %17 = ashr i64 %9, 32
  %18 = mul nsw i64 %16, %17
  %.not.i = icmp eq i64 %15, %18
  br i1 %.not.i, label %26, label %19

19:                                               ; preds = %6
  %20 = sub nsw i64 %15, %18
  %21 = xor i64 %17, %20
  %22 = xor i64 %21, %14
  %23 = ashr i64 %22, 63
  %24 = trunc nsw i64 %23 to i32
  %25 = or i32 %24, 1
  br label %av_cmp_q.exit

26:                                               ; preds = %6
  %27 = icmp ugt i64 %12, 4294967295
  %28 = icmp ugt i64 %9, 4294967295
  %or.cond.i = and i1 %28, %27
  br i1 %or.cond.i, label %av_cmp_q.exit, label %29

29:                                               ; preds = %26
  %30 = icmp ne i32 %.sroa.011.0.extract.trunc.i, 0
  %31 = icmp ne i32 %.sroa.0.0.extract.trunc.i, 0
  %or.cond5.i = and i1 %30, %31
  br i1 %or.cond5.i, label %32, label %av_cmp_q.exit

32:                                               ; preds = %29
  %33 = ashr i32 %.sroa.011.0.extract.trunc.i, 31
  %.neg.i = lshr i32 %.sroa.0.0.extract.trunc.i, 31
  %34 = add nsw i32 %.neg.i, %33
  br label %av_cmp_q.exit

av_cmp_q.exit:                                    ; preds = %19, %26, %29, %32
  %.0.i = phi i32 [ %25, %19 ], [ %34, %32 ], [ 0, %26 ], [ -2147483648, %29 ]
  ret i32 %.0.i
}